target datalayout = "e-m:e-p270:32:32-p271:32:32-p272:64:64-i64:64-i128:128-f80:128-n8:16:32:64-S128"
target triple = "x86_64-pc-linux-gnu"

%struct.V360Context = type { ptr, i32, i32, i32, i32, i32, i32, i32, ptr, ptr, ptr, ptr, ptr, [6 x i32], [6 x i32], [6 x i32], [6 x i32], [3 x i32], i32, i32, float, float, i32, i32, float, float, float, float, float, i32, i32, i32, i32, i32, i32, i32, float, float, float, float, float, float, [2 x float], [2 x float], [2 x [4 x float]], [3 x float], i32, i32, i32, i32, [4 x i32], [4 x i32], [4 x i32], [4 x i32], [4 x i32], [4 x i32], [4 x i32], [4 x i32], [4 x i32], [4 x i32], [4 x i32], i32, i32, i32, i32, i32, i32, ptr, [4 x i32], ptr, ptr, ptr, ptr, ptr }
%struct.AVFilterContext = type { ptr, ptr, ptr, ptr, ptr, i32, ptr, ptr, i32, ptr, ptr, i32, i32, ptr, ptr, ptr, ptr, i32, ptr, i32, i32 }

; Function Attrs: nounwind uwtable
define internal void @reset_rot(ptr noundef %0) #0 {
  %2 = alloca ptr, align 8
  store ptr %0, ptr %2, align 8, !tbaa !4
  %3 = load ptr, ptr %2, align 8, !tbaa !4
  %4 = getelementptr inbounds nuw %struct.V360Context, ptr %3, i32 0, i32 44
  %5 = getelementptr inbounds [2 x [4 x float]], ptr %4, i64 0, i64 0
  %6 = getelementptr inbounds [4 x float], ptr %5, i64 0, i64 0
  store float 1.000000e+00, ptr %6, align 4, !tbaa !99
  %7 = load ptr, ptr %2, align 8, !tbaa !4
  %8 = getelementptr inbounds nuw %struct.V360Context, ptr %7, i32 0, i32 44
  %9 = getelementptr inbounds [2 x [4 x float]], ptr %8, i64 0, i64 0
  %10 = getelementptr inbounds [4 x float], ptr %9, i64 0, i64 3
  store float 0.000000e+00, ptr %10, align 4, !tbaa !99
  %11 = load ptr, ptr %2, align 8, !tbaa !4
  %12 = getelementptr inbounds nuw %struct.V360Context, ptr %11, i32 0, i32 44
  %13 = getelementptr inbounds [2 x [4 x float]], ptr %12, i64 0, i64 0
  %14 = getelementptr inbounds [4 x float], ptr %13, i64 0, i64 2
  store float 0.000000e+00, ptr %14, align 4, !tbaa !99
  %15 = load ptr, ptr %2, align 8, !tbaa !4
  %16 = getelementptr inbounds nuw %struct.V360Context, ptr %15, i32 0, i32 44
  %17 = getelementptr inbounds [2 x [4 x float]], ptr %16, i64 0, i64 0
  %18 = getelementptr inbounds [4 x float], ptr %17, i64 0, i64 1
  store float 0.000000e+00, ptr %18, align 4, !tbaa !99
  ret void
}

; Function Attrs: nounwind uwtable
define internal i32 @process_command(ptr noundef %0, ptr noundef %1, ptr noundef %2, ptr noundef %3, i32 noundef %4, i32 noundef %5) #0 {
  %7 = alloca i32, align 4
  %8 = alloca ptr, align 8
  %9 = alloca ptr, align 8
  %10 = alloca ptr, align 8
  %11 = alloca ptr, align 8
  %12 = alloca i32, align 4
  %13 = alloca i32, align 4
  %14 = alloca ptr, align 8
  %15 = alloca i32, align 4
  %16 = alloca i32, align 4
  store ptr %0, ptr %8, align 8, !tbaa !47
  store ptr %1, ptr %9, align 8, !tbaa !18
  store ptr %2, ptr %10, align 8, !tbaa !18
  store ptr %3, ptr %11, align 8, !tbaa !18
  store i32 %4, ptr %12, align 4, !tbaa !9
  store i32 %5, ptr %13, align 4, !tbaa !9
  call void @llvm.lifetime.start.p0(i64 8, ptr %14) #13
  %17 = load ptr, ptr %8, align 8, !tbaa !47
  %18 = getelementptr inbounds nuw %struct.AVFilterContext, ptr %17, i32 0, i32 9
  %19 = load ptr, ptr %18, align 8, !tbaa !49
  store ptr %19, ptr %14, align 8, !tbaa !4
  call void @llvm.lifetime.start.p0(i64 4, ptr %15) #13
  %20 = load ptr, ptr %14, align 8, !tbaa !4
  %21 = getelementptr inbounds nuw %struct.V360Context, ptr %20, i32 0, i32 5
  %22 = load i32, ptr %21, align 8, !tbaa !68
  %23 = icmp sle i32 %22, 0
  br i1 %23, label %24, label %31

24:                                               ; preds = %6
  %25 = load ptr, ptr %14, align 8, !tbaa !4
  %26 = getelementptr inbounds nuw %struct.V360Context, ptr %25, i32 0, i32 26
  store float 0.000000e+00, ptr %26, align 4, !tbaa !69
  %27 = load ptr, ptr %14, align 8, !tbaa !4
  %28 = getelementptr inbounds nuw %struct.V360Context, ptr %27, i32 0, i32 25
  store float 0.000000e+00, ptr %28, align 8, !tbaa !70
  %29 = load ptr, ptr %14, align 8, !tbaa !4
  %30 = getelementptr inbounds nuw %struct.V360Context, ptr %29, i32 0, i32 24
  store float 0.000000e+00, ptr %30, align 4, !tbaa !71
  br label %31

31:                                               ; preds = %24, %6
  %32 = load ptr, ptr %14, align 8, !tbaa !4
  %33 = getelementptr inbounds nuw %struct.V360Context, ptr %32, i32 0, i32 5
  %34 = load i32, ptr %33, align 8, !tbaa !68
  %35 = icmp slt i32 %34, 0
  br i1 %35, label %36, label %39

36:                                               ; preds = %31
  %37 = load ptr, ptr %14, align 8, !tbaa !4
  %38 = getelementptr inbounds nuw %struct.V360Context, ptr %37, i32 0, i32 5
  store i32 0, ptr %38, align 8, !tbaa !68
  br label %39

39:                                               ; preds = %36, %31
  %40 = load ptr, ptr %8, align 8, !tbaa !47
  %41 = load ptr, ptr %9, align 8, !tbaa !18
  %42 = load ptr, ptr %10, align 8, !tbaa !18
  %43 = load ptr, ptr %11, align 8, !tbaa !18
  %44 = load i32, ptr %12, align 4, !tbaa !9
  %45 = load i32, ptr %13, align 4, !tbaa !9
  %46 = call i32 @ff_filter_process_command(ptr noundef %40, ptr noundef %41, ptr noundef %42, ptr noundef %43, i32 noundef %44, i32 noundef %45)
  store i32 %46, ptr %15, align 4, !tbaa !9
  %47 = load i32, ptr %15, align 4, !tbaa !9
  %48 = icmp slt i32 %47, 0
  br i1 %48, label %49, label %51

49:                                               ; preds = %39
  %50 = load i32, ptr %15, align 4, !tbaa !9
  store i32 %50, ptr %7, align 4
  store i32 1, ptr %16, align 4
  br label %65

51:                                               ; preds = %39
  %52 = load ptr, ptr %14, align 8, !tbaa !4
  %53 = getelementptr inbounds nuw %struct.V360Context, ptr %52, i32 0, i32 5
  %54 = load i32, ptr %53, align 8, !tbaa !68
  %55 = icmp ne i32 %54, 0
  br i1 %55, label %56, label %58

56:                                               ; preds = %51
  %57 = load ptr, ptr %14, align 8, !tbaa !4
  call void @reset_rot(ptr noundef %57)
  br label %58

58:                                               ; preds = %56, %51
  %59 = load ptr, ptr %8, align 8, !tbaa !47
  %60 = getelementptr inbounds nuw %struct.AVFilterContext, ptr %59, i32 0, i32 7
  %61 = load ptr, ptr %60, align 8, !tbaa !72
  %62 = getelementptr inbounds ptr, ptr %61, i64 0
  %63 = load ptr, ptr %62, align 8, !tbaa !73
  %64 = call i32 @config_output(ptr noundef %63)
  store i32 %64, ptr %7, align 4
  store i32 1, ptr %16, align 4
  br label %65

65:                                               ; preds = %58, %49
  call void @llvm.lifetime.end.p0(i64 4, ptr %15) #13
  call void @llvm.lifetime.end.p0(i64 8, ptr %14) #13
  %66 = load i32, ptr %7, align 4
  ret i32 %66
}