; Function Attrs: nounwind uwtable
define internal i32 @process_command(ptr noundef %0, ptr noundef %1, ptr noundef %2, ptr noundef %3, i32 noundef %4, i32 noundef %5) #4 {
  %7 = getelementptr inbounds nuw i8, ptr %0, i64 72
  %8 = load ptr, ptr %7, align 8, !tbaa !39
  %9 = getelementptr inbounds nuw i8, ptr %8, i64 24
  %10 = load i32, ptr %9, align 8, !tbaa !56
  %11 = icmp slt i32 %10, 1
  br i1 %11, label %12, label %.thread

12:                                               ; preds = %6
  %13 = getelementptr inbounds nuw i8, ptr %8, i64 220
  store float 0.000000e+00, ptr %13, align 4, !tbaa !57
  %14 = getelementptr inbounds nuw i8, ptr %8, i64 216
  store float 0.000000e+00, ptr %14, align 8, !tbaa !58
  %15 = getelementptr inbounds nuw i8, ptr %8, i64 212
  store float 0.000000e+00, ptr %15, align 4, !tbaa !59
  %16 = icmp slt i32 %10, 0
  br i1 %16, label %17, label %.thread

17:                                               ; preds = %12
  store i32 0, ptr %9, align 8, !tbaa !56
  br label %.thread

.thread:                                          ; preds = %6, %17, %12
  %18 = tail call i32 @ff_filter_process_command(ptr noundef nonnull %0, ptr noundef %1, ptr noundef %2, ptr noundef %3, i32 noundef %4, i32 noundef %5) #16
  %19 = icmp slt i32 %18, 0
  br i1 %19, label %32, label %20

20:                                               ; preds = %.thread
  %21 = load i32, ptr %9, align 8, !tbaa !56
  %.not = icmp eq i32 %21, 0
  br i1 %.not, label %27, label %22

22:                                               ; preds = %20
  %23 = getelementptr inbounds nuw i8, ptr %8, i64 300
  store float 1.000000e+00, ptr %23, align 4, !tbaa !49
  %24 = getelementptr inbounds nuw i8, ptr %8, i64 312
  store float 0.000000e+00, ptr %24, align 4, !tbaa !49
  %25 = getelementptr inbounds nuw i8, ptr %8, i64 308
  store float 0.000000e+00, ptr %25, align 4, !tbaa !49
  %26 = getelementptr inbounds nuw i8, ptr %8, i64 304
  store float 0.000000e+00, ptr %26, align 4, !tbaa !49
  br label %27

27:                                               ; preds = %22, %20
  %28 = getelementptr inbounds nuw i8, ptr %0, i64 56
  %29 = load ptr, ptr %28, align 8, !tbaa !60
  %30 = load ptr, ptr %29, align 8, !tbaa !61
  %31 = tail call i32 @config_output(ptr noundef %30)
  br label %32

32:                                               ; preds = %.thread, %27
  %.0 = phi i32 [ %31, %27 ], [ %18, %.thread ]
  ret i32 %.0
}